SF:/Users/alex/repos/victoryforphil/victory-terminal/src/app/mod.rs
FN:2,_RNvXs0_NvXNvNtCshM9fl22eola_16victory_terminal3app1__NtBa_11TerminalAppNtNtCsck5D6mtPzaB_5serde2de11Deserialize11deserializeNtB5_9___VisitorNtB19_7Visitor9expecting
FN:50,_RNCNCNCNvXs0_NtCshM9fl22eola_16victory_terminal3appNtBb_11TerminalAppNtNtCsbRe2T1nIyAX_6eframe3epi3App6update000Bd_
FN:66,_RNCNCNvXs0_NtCshM9fl22eola_16victory_terminal3appNtB9_11TerminalAppNtNtCsbRe2T1nIyAX_6eframe3epi3App6updates_00Bb_
FN:2,_RINvXNvNtCshM9fl22eola_16victory_terminal3apps_1__NtB5_11TerminalAppNtNtCsck5D6mtPzaB_5serde3ser9Serialize9serializepEB7_
FN:44,_RNCNvXs0_NtCshM9fl22eola_16victory_terminal3appNtB7_11TerminalAppNtNtCsbRe2T1nIyAX_6eframe3epi3App6update0B9_
FN:2,_RNvXNvXNvNtCshM9fl22eola_16victory_terminal3app1__NtB7_11TerminalAppNtNtCsck5D6mtPzaB_5serde2de11Deserialize11deserializeNtB2_14___FieldVisitorNtB16_7Visitor9expecting
FN:2,_RINvXs_NvXNvNtCshM9fl22eola_16victory_terminal3app1__NtBa_11TerminalAppNtNtCsck5D6mtPzaB_5serde2de11Deserialize11deserializeNtB5_7___FieldB17_11deserializepEBc_
FN:2,_RINvXNvNtCshM9fl22eola_16victory_terminal3app1__NtB5_11TerminalAppNtNtCsck5D6mtPzaB_5serde2de11Deserialize11deserializepEB7_
FN:2,_RINvXNvXNvNtCshM9fl22eola_16victory_terminal3app1__NtB8_11TerminalAppNtNtCsck5D6mtPzaB_5serde2de11Deserialize11deserializeNtB3_14___FieldVisitorNtB17_7Visitor11visit_bytespEBa_
FN:47,_RNCNCNvXs0_NtCshM9fl22eola_16victory_terminal3appNtB9_11TerminalAppNtNtCsbRe2T1nIyAX_6eframe3epi3App6update00Bb_
FN:2,_RINvXs0_NvXNvNtCshM9fl22eola_16victory_terminal3app1__NtBb_11TerminalAppNtNtCsck5D6mtPzaB_5serde2de11Deserialize11deserializeNtB6_9___VisitorNtB1a_7Visitor9visit_seqpEBd_
FN:24,_RNvMs_NtCshM9fl22eola_16victory_terminal3appNtB4_11TerminalApp3new
FN:62,_RNCNvXs0_NtCshM9fl22eola_16victory_terminal3appNtB7_11TerminalAppNtNtCsbRe2T1nIyAX_6eframe3epi3App6updates_0B9_
FN:2,_RINvXs0_NvXNvNtCshM9fl22eola_16victory_terminal3app1__NtBb_11TerminalAppNtNtCsck5D6mtPzaB_5serde2de11Deserialize11deserializeNtB6_9___VisitorNtB1a_7Visitor9visit_mappEBd_
FN:2,_RINvXNvXNvNtCshM9fl22eola_16victory_terminal3app1__NtB8_11TerminalAppNtNtCsck5D6mtPzaB_5serde2de11Deserialize11deserializeNtB3_14___FieldVisitorNtB17_7Visitor9visit_u64pEBa_
FN:40,_RNvXs0_NtCshM9fl22eola_16victory_terminal3appNtB5_11TerminalAppNtNtCsbRe2T1nIyAX_6eframe3epi3App6update
FN:13,_RNvXNtCshM9fl22eola_16victory_terminal3appNtB2_11TerminalAppNtNtCs8wOFr1cHCbA_4core7default7Default7default
FN:2,_RINvXNvXNvNtCshM9fl22eola_16victory_terminal3app1__NtB8_11TerminalAppNtNtCsck5D6mtPzaB_5serde2de11Deserialize11deserializeNtB3_14___FieldVisitorNtB17_7Visitor9visit_strpEBa_
FNDA:0,_RNvXs0_NvXNvNtCshM9fl22eola_16victory_terminal3app1__NtBa_11TerminalAppNtNtCsck5D6mtPzaB_5serde2de11Deserialize11deserializeNtB5_9___VisitorNtB19_7Visitor9expecting
FNDA:0,_RNCNCNCNvXs0_NtCshM9fl22eola_16victory_terminal3appNtBb_11TerminalAppNtNtCsbRe2T1nIyAX_6eframe3epi3App6update000Bd_
FNDA:0,_RNCNCNvXs0_NtCshM9fl22eola_16victory_terminal3appNtB9_11TerminalAppNtNtCsbRe2T1nIyAX_6eframe3epi3App6updates_00Bb_
FNDA:0,_RINvXNvNtCshM9fl22eola_16victory_terminal3apps_1__NtB5_11TerminalAppNtNtCsck5D6mtPzaB_5serde3ser9Serialize9serializepEB7_
FNDA:0,_RNCNvXs0_NtCshM9fl22eola_16victory_terminal3appNtB7_11TerminalAppNtNtCsbRe2T1nIyAX_6eframe3epi3App6update0B9_
FNDA:0,_RNvXNvXNvNtCshM9fl22eola_16victory_terminal3app1__NtB7_11TerminalAppNtNtCsck5D6mtPzaB_5serde2de11Deserialize11deserializeNtB2_14___FieldVisitorNtB16_7Visitor9expecting
FNDA:0,_RINvXs_NvXNvNtCshM9fl22eola_16victory_terminal3app1__NtBa_11TerminalAppNtNtCsck5D6mtPzaB_5serde2de11Deserialize11deserializeNtB5_7___FieldB17_11deserializepEBc_
FNDA:0,_RINvXNvNtCshM9fl22eola_16victory_terminal3app1__NtB5_11TerminalAppNtNtCsck5D6mtPzaB_5serde2de11Deserialize11deserializepEB7_
FNDA:0,_RINvXNvXNvNtCshM9fl22eola_16victory_terminal3app1__NtB8_11TerminalAppNtNtCsck5D6mtPzaB_5serde2de11Deserialize11deserializeNtB3_14___FieldVisitorNtB17_7Visitor11visit_bytespEBa_
FNDA:0,_RNCNCNvXs0_NtCshM9fl22eola_16victory_terminal3appNtB9_11TerminalAppNtNtCsbRe2T1nIyAX_6eframe3epi3App6update00Bb_
FNDA:0,_RINvXs0_NvXNvNtCshM9fl22eola_16victory_terminal3app1__NtBb_11TerminalAppNtNtCsck5D6mtPzaB_5serde2de11Deserialize11deserializeNtB6_9___VisitorNtB1a_7Visitor9visit_seqpEBd_
FNDA:0,_RNvMs_NtCshM9fl22eola_16victory_terminal3appNtB4_11TerminalApp3new
FNDA:0,_RNCNvXs0_NtCshM9fl22eola_16victory_terminal3appNtB7_11TerminalAppNtNtCsbRe2T1nIyAX_6eframe3epi3App6updates_0B9_
FNDA:0,_RINvXs0_NvXNvNtCshM9fl22eola_16victory_terminal3app1__NtBb_11TerminalAppNtNtCsck5D6mtPzaB_5serde2de11Deserialize11deserializeNtB6_9___VisitorNtB1a_7Visitor9visit_mappEBd_
FNDA:0,_RINvXNvXNvNtCshM9fl22eola_16victory_terminal3app1__NtB8_11TerminalAppNtNtCsck5D6mtPzaB_5serde2de11Deserialize11deserializeNtB3_14___FieldVisitorNtB17_7Visitor9visit_u64pEBa_
FNDA:0,_RNvXs0_NtCshM9fl22eola_16victory_terminal3appNtB5_11TerminalAppNtNtCsbRe2T1nIyAX_6eframe3epi3App6update
FNDA:0,_RNvXNtCshM9fl22eola_16victory_terminal3appNtB2_11TerminalAppNtNtCs8wOFr1cHCbA_4core7default7Default7default
FNDA:0,_RINvXNvXNvNtCshM9fl22eola_16victory_terminal3app1__NtB8_11TerminalAppNtNtCsck5D6mtPzaB_5serde2de11Deserialize11deserializeNtB3_14___FieldVisitorNtB17_7Visitor9visit_strpEBa_
FNF:10
FNH:0
DA:2,0
DA:13,0
DA:14,0
DA:15,0
DA:16,0
DA:17,0
DA:18,0
DA:19,0
DA:24,0
DA:25,0
DA:26,0
DA:27,0
DA:28,0
DA:29,0
DA:30,0
DA:31,0
DA:32,0
DA:33,0
DA:40,0
DA:41,0
DA:42,0
DA:43,0
DA:44,0
DA:45,0
DA:46,0
DA:47,0
DA:48,0
DA:49,0
DA:50,0
DA:51,0
DA:52,0
DA:53,0
DA:54,0
DA:55,0
DA:56,0
DA:57,0
DA:58,0
DA:59,0
DA:60,0
DA:61,0
DA:62,0
DA:63,0
DA:64,0
DA:65,0
DA:66,0
DA:67,0
DA:68,0
DA:69,0
DA:70,0
DA:71,0
DA:72,0
DA:73,0
DA:74,0
DA:75,0
DA:76,0
BRF:0
BRH:0
LF:66
LH:0
end_of_record
SF:/Users/alex/repos/victoryforphil/victory-terminal/src/main.rs
FN:4,_RNvCsjOH6tQcCbS2_16victory_terminal4main
FN:15,_RNCNvCsjOH6tQcCbS2_16victory_terminal4main0B3_
FNDA:0,_RNvCsjOH6tQcCbS2_16victory_terminal4main
FNDA:0,_RNCNvCsjOH6tQcCbS2_16victory_terminal4main0B3_
FNF:2
FNH:0
DA:4,0
DA:5,0
DA:6,0
DA:7,0
DA:8,0
DA:9,0
DA:10,0
DA:11,0
DA:12,0
DA:13,0
DA:14,0
DA:15,0
DA:16,0
DA:17,0
BRF:0
BRH:0
LF:15
LH:0
end_of_record